target datalayout = "e-m:e-p270:32:32-p271:32:32-p272:64:64-i64:64-i128:128-f80:128-n8:16:32:64-S128"
target triple = "x86_64-pc-linux-gnu"

%struct.userdata_t = type { %struct.agxbuf, %struct.agxbuf, %struct.agxbuf, i8, i32, i32, i8, i8, ptr }
%struct.agxbuf = type { %union.anon }
%union.anon = type { %struct.anon }
%struct.anon = type { ptr, i64, i64, [7 x i8], i8 }

@root = internal global ptr null, align 8
@defval = internal global ptr @.str.4, align 8
@.str.55 = private unnamed_addr constant [9 x i8] c"headport\00", align 1
@.str.56 = private unnamed_addr constant [9 x i8] c"tailport\00", align 1

; Function Attrs: nounwind uwtable
define internal void @setEdgeAttr(ptr noundef %0, ptr noundef %1, ptr noundef %2, ptr noundef %3, i1 noundef zeroext %4) #0 {
  %6 = alloca ptr, align 8
  %7 = alloca ptr, align 8
  %8 = alloca ptr, align 8
  %9 = alloca ptr, align 8
  %10 = alloca i8, align 1
  %11 = alloca ptr, align 8
  %12 = alloca ptr, align 8
  store ptr %0, ptr %6, align 8, !tbaa !34
  store ptr %1, ptr %7, align 8, !tbaa !30
  store ptr %2, ptr %8, align 8, !tbaa !30
  store ptr %3, ptr %9, align 8, !tbaa !28
  %13 = zext i1 %4 to i8
  store i8 %13, ptr %10, align 1, !tbaa !64
  call void @llvm.lifetime.start.p0(i64 8, ptr %11) #14
  call void @llvm.lifetime.start.p0(i64 8, ptr %12) #14
  %14 = load ptr, ptr %7, align 8, !tbaa !30
  %15 = call i32 @strcmp(ptr noundef %14, ptr noundef @.str.55) #16
  %16 = icmp eq i32 %15, 0
  br i1 %16, label %17, label %36

17:                                               ; preds = %5
  %18 = load ptr, ptr %9, align 8, !tbaa !28
  %19 = getelementptr inbounds nuw %struct.userdata_t, ptr %18, i32 0, i32 7
  %20 = load i8, ptr %19, align 1, !tbaa !27, !range !45, !noundef !46
  %21 = trunc i8 %20 to i1
  br i1 %21, label %22, label %23

22:                                               ; preds = %17
  store ptr @.str.56, ptr %12, align 8, !tbaa !30
  br label %24

23:                                               ; preds = %17
  store ptr @.str.55, ptr %12, align 8, !tbaa !30
  br label %24

24:                                               ; preds = %23, %22
  %25 = load ptr, ptr @root, align 8, !tbaa !13
  %26 = load ptr, ptr %12, align 8, !tbaa !30
  %27 = call ptr @agattr(ptr noundef %25, i32 noundef 2, ptr noundef %26, ptr noundef null)
  store ptr %27, ptr %11, align 8, !tbaa !58
  %28 = load ptr, ptr %11, align 8, !tbaa !58
  %29 = icmp ne ptr %28, null
  br i1 %29, label %35, label %30

30:                                               ; preds = %24
  %31 = load ptr, ptr @root, align 8, !tbaa !13
  %32 = load ptr, ptr %12, align 8, !tbaa !30
  %33 = load ptr, ptr @defval, align 8, !tbaa !30
  %34 = call ptr @agattr(ptr noundef %31, i32 noundef 2, ptr noundef %32, ptr noundef %33)
  store ptr %34, ptr %11, align 8, !tbaa !58
  br label %35

35:                                               ; preds = %30, %24
  br label %72

36:                                               ; preds = %5
  %37 = load ptr, ptr %7, align 8, !tbaa !30
  %38 = call i32 @strcmp(ptr noundef %37, ptr noundef @.str.56) #16
  %39 = icmp eq i32 %38, 0
  br i1 %39, label %40, label %59

40:                                               ; preds = %36
  %41 = load ptr, ptr %9, align 8, !tbaa !28
  %42 = getelementptr inbounds nuw %struct.userdata_t, ptr %41, i32 0, i32 7
  %43 = load i8, ptr %42, align 1, !tbaa !27, !range !45, !noundef !46
  %44 = trunc i8 %43 to i1
  br i1 %44, label %45, label %46

45:                                               ; preds = %40
  store ptr @.str.55, ptr %12, align 8, !tbaa !30
  br label %47

46:                                               ; preds = %40
  store ptr @.str.56, ptr %12, align 8, !tbaa !30
  br label %47

47:                                               ; preds = %46, %45
  %48 = load ptr, ptr @root, align 8, !tbaa !13
  %49 = load ptr, ptr %12, align 8, !tbaa !30
  %50 = call ptr @agattr(ptr noundef %48, i32 noundef 2, ptr noundef %49, ptr noundef null)
  store ptr %50, ptr %11, align 8, !tbaa !58
  %51 = load ptr, ptr %11, align 8, !tbaa !58
  %52 = icmp ne ptr %51, null
  br i1 %52, label %58, label %53

53:                                               ; preds = %47
  %54 = load ptr, ptr @root, align 8, !tbaa !13
  %55 = load ptr, ptr %12, align 8, !tbaa !30
  %56 = load ptr, ptr @defval, align 8, !tbaa !30
  %57 = call ptr @agattr(ptr noundef %54, i32 noundef 2, ptr noundef %55, ptr noundef %56)
  store ptr %57, ptr %11, align 8, !tbaa !58
  br label %58

58:                                               ; preds = %53, %47
  br label %71

59:                                               ; preds = %36
  %60 = load ptr, ptr @root, align 8, !tbaa !13
  %61 = load ptr, ptr %7, align 8, !tbaa !30
  %62 = call ptr @agattr(ptr noundef %60, i32 noundef 2, ptr noundef %61, ptr noundef null)
  store ptr %62, ptr %11, align 8, !tbaa !58
  %63 = load ptr, ptr %11, align 8, !tbaa !58
  %64 = icmp ne ptr %63, null
  br i1 %64, label %70, label %65

65:                                               ; preds = %59
  %66 = load ptr, ptr @root, align 8, !tbaa !13
  %67 = load ptr, ptr %7, align 8, !tbaa !30
  %68 = load ptr, ptr @defval, align 8, !tbaa !30
  %69 = call ptr @agattr(ptr noundef %66, i32 noundef 2, ptr noundef %67, ptr noundef %68)
  store ptr %69, ptr %11, align 8, !tbaa !58
  br label %70

70:                                               ; preds = %65, %59
  br label %71

71:                                               ; preds = %70, %58
  br label %72

72:                                               ; preds = %71, %35
  %73 = load i8, ptr %10, align 1, !tbaa !64, !range !45, !noundef !46
  %74 = trunc i8 %73 to i1
  br i1 %74, label %75, label %80

75:                                               ; preds = %72
  %76 = load ptr, ptr %6, align 8, !tbaa !34
  %77 = load ptr, ptr %11, align 8, !tbaa !58
  %78 = load ptr, ptr %8, align 8, !tbaa !30
  %79 = call i32 @agxset_html(ptr noundef %76, ptr noundef %77, ptr noundef %78)
  br label %85

80:                                               ; preds = %72
  %81 = load ptr, ptr %6, align 8, !tbaa !34
  %82 = load ptr, ptr %11, align 8, !tbaa !58
  %83 = load ptr, ptr %8, align 8, !tbaa !30
  %84 = call i32 @agxset(ptr noundef %81, ptr noundef %82, ptr noundef %83)
  br label %85

85:                                               ; preds = %80, %75
  call void @llvm.lifetime.end.p0(i64 8, ptr %12) #14
  call void @llvm.lifetime.end.p0(i64 8, ptr %11) #14
  ret void
}