; Function Attrs: nounwind uwtable
define internal fastcc void @setEdgeAttr(ptr noundef %0, ptr noundef %1, ptr noundef %2, ptr noundef readonly captures(none) %3, i1 noundef zeroext %4) unnamed_addr #0 {
  %6 = tail call i32 @strcmp(ptr noundef nonnull dereferenceable(1) %1, ptr noundef nonnull dereferenceable(9) @.str.55) #27
  %7 = icmp eq i32 %6, 0
  br i1 %7, label %8, label %14

8:                                                ; preds = %5
  %9 = getelementptr inbounds nuw i8, ptr %3, i64 109
  %10 = load i8, ptr %9, align 1, !tbaa !52, !range !56, !noundef !57
  %11 = trunc nuw i8 %10 to i1
  %.str.56..str.55 = select i1 %11, ptr @.str.56, ptr @.str.55
  %12 = load ptr, ptr @root, align 8, !tbaa !18
  %13 = tail call ptr @agattr(ptr noundef %12, i32 noundef 2, ptr noundef nonnull %.str.56..str.55, ptr noundef null) #24
  %.not24 = icmp eq ptr %13, null
  br i1 %.not24, label %.sink.split, label %28

14:                                               ; preds = %5
  %15 = tail call i32 @strcmp(ptr noundef nonnull dereferenceable(1) %1, ptr noundef nonnull dereferenceable(9) @.str.56) #27
  %16 = icmp eq i32 %15, 0
  br i1 %16, label %17, label %23

17:                                               ; preds = %14
  %18 = getelementptr inbounds nuw i8, ptr %3, i64 109
  %19 = load i8, ptr %18, align 1, !tbaa !52, !range !56, !noundef !57
  %20 = trunc nuw i8 %19 to i1
  %.str.55..str.56 = select i1 %20, ptr @.str.55, ptr @.str.56
  %21 = load ptr, ptr @root, align 8, !tbaa !18
  %22 = tail call ptr @agattr(ptr noundef %21, i32 noundef 2, ptr noundef nonnull %.str.55..str.56, ptr noundef null) #24
  %.not23 = icmp eq ptr %22, null
  br i1 %.not23, label %.sink.split, label %28

23:                                               ; preds = %14
  %24 = load ptr, ptr @root, align 8, !tbaa !18
  %25 = tail call ptr @agattr(ptr noundef %24, i32 noundef 2, ptr noundef nonnull %1, ptr noundef null) #24
  %.not = icmp eq ptr %25, null
  br i1 %.not, label %.sink.split, label %28

.sink.split:                                      ; preds = %23, %17, %8
  %.str.55..str.56.sink = phi ptr [ %.str.56..str.55, %8 ], [ %.str.55..str.56, %17 ], [ %1, %23 ]
  %26 = load ptr, ptr @root, align 8, !tbaa !18
  %27 = tail call ptr @agattr(ptr noundef %26, i32 noundef 2, ptr noundef nonnull %.str.55..str.56.sink, ptr noundef nonnull @.str.4) #24
  br label %28

28:                                               ; preds = %.sink.split, %17, %23, %8
  %.019 = phi ptr [ %13, %8 ], [ %22, %17 ], [ %25, %23 ], [ %27, %.sink.split ]
  br i1 %4, label %29, label %31

29:                                               ; preds = %28
  %30 = tail call i32 @agxset_html(ptr noundef %0, ptr noundef %.019, ptr noundef %2) #24
  br label %33

31:                                               ; preds = %28
  %32 = tail call i32 @agxset(ptr noundef %0, ptr noundef %.019, ptr noundef %2) #24
  br label %33

33:                                               ; preds = %31, %29
  ret void
}